target datalayout = "e-m:e-p270:32:32-p271:32:32-p272:64:64-i64:64-i128:128-f80:128-n8:16:32:64-S128"
target triple = "x86_64-pc-linux-gnu"

%struct.ImVec2 = type { float, float }
%struct.ImVec4 = type { float, float, float, float }
%struct.ImGuiIO = type { i32, i32, %struct.ImVec2, float, float, ptr, ptr, ptr, ptr, float, i8, ptr, %struct.ImVec2, i8, i8, i8, i8, i8, i8, i8, i8, i8, i8, float, float, float, float, float, float, i8, i8, i8, i8, i8, i8, i8, i8, i8, i8, ptr, ptr, ptr, ptr, ptr, i8, i8, i8, i8, i8, i8, i8, float, i32, i32, i32, i32, %struct.ImVec2, ptr, %struct.ImVec2, [5 x i8], float, float, i32, i8, i8, i8, i8, i32, [154 x %struct.ImGuiKeyData], i8, %struct.ImVec2, [5 x %struct.ImVec2], [5 x double], [5 x i8], [5 x i8], [5 x i16], [5 x i16], [5 x i8], [5 x i8], [5 x i8], i8, i8, [5 x float], [5 x float], [5 x float], float, i8, i8, i8, i8, i16, %struct.ImVector }
%struct.ImGuiKeyData = type { i8, float, float, float }
%struct.ImVector = type { i32, i32, ptr }
%struct.ImFontAtlas = type <{ i32, [4 x i8], ptr, i32, i32, i8, [7 x i8], ptr, i8, i8, [6 x i8], ptr, ptr, i32, i32, %struct.ImVec2, %struct.ImVec2, %struct.ImVector.0, %struct.ImVector.1, %struct.ImVector.2, [64 x %struct.ImVec4], ptr, i32, i32, i32, [4 x i8] }>
%struct.ImVector.0 = type { i32, i32, ptr }
%struct.ImVector.1 = type { i32, i32, ptr }
%struct.ImVector.2 = type { i32, i32, ptr }
%struct.ImFont = type <{ %struct.ImVector.3, float, float, %struct.ImVector, %struct.ImVector.4, ptr, ptr, ptr, i16, i16, i16, i16, float, float, i8, [3 x i8], float, float, float, i32, [2 x i8], [2 x i8] }>
%struct.ImVector.3 = type { i32, i32, ptr }
%struct.ImVector.4 = type { i32, i32, ptr }
%struct.ImFontConfig = type { ptr, i32, i8, i32, float, i32, i32, i8, %struct.ImVec2, %struct.ImVec2, ptr, float, float, i8, i32, float, float, i16, [40 x i8], ptr }

@.str.287 = private unnamed_addr constant [4 x i8] c"(?)\00", align 1
@.str.1956 = private unnamed_addr constant [10 x i8] c"<unknown>\00", align 1

; Function Attrs: mustprogress uwtable
define internal void @_ZL10HelpMarkerPKc(ptr noundef %0) #0 {
  %2 = alloca ptr, align 8
  store ptr %0, ptr %2, align 8, !tbaa !103
  call void (ptr, ...) @_ZN5ImGui12TextDisabledEPKcz(ptr noundef @.str.287)
  %3 = call noundef zeroext i1 @_ZN5ImGui16BeginItemTooltipEv()
  br i1 %3, label %4, label %8

4:                                                ; preds = %1
  %5 = call noundef float @_ZN5ImGui11GetFontSizeEv()
  %6 = fmul float %5, 3.500000e+01
  call void @_ZN5ImGui15PushTextWrapPosEf(float noundef %6)
  %7 = load ptr, ptr %2, align 8, !tbaa !103
  call void @_ZN5ImGui15TextUnformattedEPKcS1_(ptr noundef %7, ptr noundef null)
  call void @_ZN5ImGui14PopTextWrapPosEv()
  call void @_ZN5ImGui10EndTooltipEv()
  br label %8

8:                                                ; preds = %4, %1
  ret void
}

; Function Attrs: mustprogress nounwind uwtable
define linkonce_odr dso_local void @_ZN6ImVec2C2Eff(ptr noundef nonnull align 4 dereferenceable(8) %0, float noundef %1, float noundef %2) unnamed_addr #4 comdat align 2 {
  %4 = alloca ptr, align 8
  %5 = alloca float, align 4
  %6 = alloca float, align 4
  store ptr %0, ptr %4, align 8, !tbaa !179
  store float %1, ptr %5, align 4, !tbaa !80
  store float %2, ptr %6, align 4, !tbaa !80
  %7 = load ptr, ptr %4, align 8
  %8 = getelementptr inbounds nuw %struct.ImVec2, ptr %7, i32 0, i32 0
  %9 = load float, ptr %5, align 4, !tbaa !80
  store float %9, ptr %8, align 4, !tbaa !86
  %10 = getelementptr inbounds nuw %struct.ImVec2, ptr %7, i32 0, i32 1
  %11 = load float, ptr %6, align 4, !tbaa !80
  store float %11, ptr %10, align 4, !tbaa !87
  ret void
}

; Function Attrs: inlinehint mustprogress nounwind uwtable
define linkonce_odr dso_local noundef ptr @_ZN8ImVectorIP6ImFontE3endEv(ptr noundef nonnull align 8 dereferenceable(16) %0) #6 comdat align 2 {
  %2 = alloca ptr, align 8
  store ptr %0, ptr %2, align 8, !tbaa !370
  %3 = load ptr, ptr %2, align 8
  %4 = getelementptr inbounds nuw %struct.ImVector.0, ptr %3, i32 0, i32 2
  %5 = load ptr, ptr %4, align 8, !tbaa !380
  %6 = getelementptr inbounds nuw %struct.ImVector.0, ptr %3, i32 0, i32 0
  %7 = load i32, ptr %6, align 8, !tbaa !381
  %8 = sext i32 %7 to i64
  %9 = getelementptr inbounds ptr, ptr %5, i64 %8
  ret ptr %9
}

; Function Attrs: inlinehint mustprogress nounwind uwtable
define linkonce_odr dso_local noundef ptr @_ZN8ImVectorIP6ImFontE5beginEv(ptr noundef nonnull align 8 dereferenceable(16) %0) #6 comdat align 2 {
  %2 = alloca ptr, align 8
  store ptr %0, ptr %2, align 8, !tbaa !370
  %3 = load ptr, ptr %2, align 8
  %4 = getelementptr inbounds nuw %struct.ImVector.0, ptr %3, i32 0, i32 2
  %5 = load ptr, ptr %4, align 8, !tbaa !380
  ret ptr %5
}

; Function Attrs: mustprogress nounwind uwtable
define linkonce_odr dso_local noundef ptr @_ZNK6ImFont12GetDebugNameEv(ptr noundef nonnull align 8 dereferenceable(118) %0) #4 comdat align 2 {
  %2 = alloca ptr, align 8
  store ptr %0, ptr %2, align 8, !tbaa !369
  %3 = load ptr, ptr %2, align 8
  %4 = getelementptr inbounds nuw %struct.ImFont, ptr %3, i32 0, i32 7
  %5 = load ptr, ptr %4, align 8, !tbaa !374
  %6 = icmp ne ptr %5, null
  br i1 %6, label %7, label %12

7:                                                ; preds = %1
  %8 = getelementptr inbounds nuw %struct.ImFont, ptr %3, i32 0, i32 7
  %9 = load ptr, ptr %8, align 8, !tbaa !374
  %10 = getelementptr inbounds nuw %struct.ImFontConfig, ptr %9, i32 0, i32 18
  %11 = getelementptr inbounds [40 x i8], ptr %10, i64 0, i64 0
  br label %13

12:                                               ; preds = %1
  br label %13

13:                                               ; preds = %12, %7
  %14 = phi ptr [ %11, %7 ], [ @.str.1956, %12 ]
  ret ptr %14
}

; Function Attrs: mustprogress uwtable
define dso_local void @_ZN5ImGui16ShowFontSelectorEPKc(ptr noundef %0) #0 {
  %2 = alloca ptr, align 8
  %3 = alloca ptr, align 8
  %4 = alloca ptr, align 8
  %5 = alloca ptr, align 8
  %6 = alloca ptr, align 8
  %7 = alloca ptr, align 8
  %8 = alloca ptr, align 8
  %9 = alloca %struct.ImVec2, align 4
  store ptr %0, ptr %2, align 8, !tbaa !103
  call void @llvm.lifetime.start.p0(i64 8, ptr %3) #7
  %10 = call noundef nonnull align 8 dereferenceable(2944) ptr @_ZN5ImGui5GetIOEv()
  store ptr %10, ptr %3, align 8, !tbaa !44
  call void @llvm.lifetime.start.p0(i64 8, ptr %4) #7
  %11 = call noundef ptr @_ZN5ImGui7GetFontEv()
  store ptr %11, ptr %4, align 8, !tbaa !369
  %12 = load ptr, ptr %2, align 8, !tbaa !103
  %13 = load ptr, ptr %4, align 8, !tbaa !369
  %14 = call noundef ptr @_ZNK6ImFont12GetDebugNameEv(ptr noundef nonnull align 8 dereferenceable(118) %13)
  %15 = call noundef zeroext i1 @_ZN5ImGui10BeginComboEPKcS1_i(ptr noundef %12, ptr noundef %14, i32 noundef 0)
  br i1 %15, label %16, label %49

16:                                               ; preds = %1
  call void @llvm.lifetime.start.p0(i64 8, ptr %5) #7
  %17 = load ptr, ptr %3, align 8, !tbaa !44
  %18 = getelementptr inbounds nuw %struct.ImGuiIO, ptr %17, i32 0, i32 8
  %19 = load ptr, ptr %18, align 8, !tbaa !132
  %20 = getelementptr inbounds nuw %struct.ImFontAtlas, ptr %19, i32 0, i32 17
  store ptr %20, ptr %5, align 8, !tbaa !370
  call void @llvm.lifetime.start.p0(i64 8, ptr %6) #7
  %21 = load ptr, ptr %5, align 8, !tbaa !370
  %22 = call noundef ptr @_ZN8ImVectorIP6ImFontE5beginEv(ptr noundef nonnull align 8 dereferenceable(16) %21)
  store ptr %22, ptr %6, align 8, !tbaa !372
  call void @llvm.lifetime.start.p0(i64 8, ptr %7) #7
  %23 = load ptr, ptr %5, align 8, !tbaa !370
  %24 = call noundef ptr @_ZN8ImVectorIP6ImFontE3endEv(ptr noundef nonnull align 8 dereferenceable(16) %23)
  store ptr %24, ptr %7, align 8, !tbaa !372
  br label %25

25:                                               ; preds = %45, %16
  %26 = load ptr, ptr %6, align 8, !tbaa !372
  %27 = load ptr, ptr %7, align 8, !tbaa !372
  %28 = icmp ne ptr %26, %27
  br i1 %28, label %30, label %29

29:                                               ; preds = %25
  call void @llvm.lifetime.end.p0(i64 8, ptr %7) #7
  call void @llvm.lifetime.end.p0(i64 8, ptr %6) #7
  call void @llvm.lifetime.end.p0(i64 8, ptr %5) #7
  br label %48

30:                                               ; preds = %25
  call void @llvm.lifetime.start.p0(i64 8, ptr %8) #7
  %31 = load ptr, ptr %6, align 8, !tbaa !372
  %32 = load ptr, ptr %31, align 8, !tbaa !369
  store ptr %32, ptr %8, align 8, !tbaa !369
  %33 = load ptr, ptr %8, align 8, !tbaa !369
  call void @_ZN5ImGui6PushIDEPKv(ptr noundef %33)
  %34 = load ptr, ptr %8, align 8, !tbaa !369
  %35 = call noundef ptr @_ZNK6ImFont12GetDebugNameEv(ptr noundef nonnull align 8 dereferenceable(118) %34)
  %36 = load ptr, ptr %8, align 8, !tbaa !369
  %37 = load ptr, ptr %4, align 8, !tbaa !369
  %38 = icmp eq ptr %36, %37
  call void @llvm.lifetime.start.p0(i64 8, ptr %9) #7
  call void @_ZN6ImVec2C2Eff(ptr noundef nonnull align 4 dereferenceable(8) %9, float noundef 0.000000e+00, float noundef 0.000000e+00)
  %39 = call noundef zeroext i1 @_ZN5ImGui10SelectableEPKcbiRK6ImVec2(ptr noundef %35, i1 noundef zeroext %38, i32 noundef 0, ptr noundef nonnull align 4 dereferenceable(8) %9)
  call void @llvm.lifetime.end.p0(i64 8, ptr %9) #7
  br i1 %39, label %40, label %44

40:                                               ; preds = %30
  %41 = load ptr, ptr %8, align 8, !tbaa !369
  %42 = load ptr, ptr %3, align 8, !tbaa !44
  %43 = getelementptr inbounds nuw %struct.ImGuiIO, ptr %42, i32 0, i32 11
  store ptr %41, ptr %43, align 8, !tbaa !373
  br label %44

44:                                               ; preds = %40, %30
  call void @_ZN5ImGui5PopIDEv()
  call void @llvm.lifetime.end.p0(i64 8, ptr %8) #7
  br label %45

45:                                               ; preds = %44
  %46 = load ptr, ptr %6, align 8, !tbaa !372
  %47 = getelementptr inbounds nuw ptr, ptr %46, i32 1
  store ptr %47, ptr %6, align 8, !tbaa !372
  br label %25

48:                                               ; preds = %29
  call void @_ZN5ImGui8EndComboEv()
  br label %49

49:                                               ; preds = %48, %1
  call void @_ZN5ImGui8SameLineEff(float noundef 0.000000e+00, float noundef -1.000000e+00)
  call void @_ZL10HelpMarkerPKc(ptr noundef @.str.158)
  call void @llvm.lifetime.end.p0(i64 8, ptr %4) #7
  call void @llvm.lifetime.end.p0(i64 8, ptr %3) #7
  ret void
}